target datalayout = "e-m:e-p270:32:32-p271:32:32-p272:64:64-i64:64-i128:128-f80:128-n8:16:32:64-S128"
target triple = "x86_64-unknown-linux-gnu"

%struct.redisServer = type { i32, i64, ptr, ptr, ptr, i32, i32, i32, i32, i32, ptr, ptr, ptr, ptr, ptr, ptr, i32, i32, i64, i32, i32, i32, i32, ptr, i32, i32, [41 x i8], i32, i64, i32, i32, i32, ptr, ptr, i32, i32, i64, ptr, ptr, ptr, ptr, [2 x i32], i32, i32, i32, i32, i32, [16 x ptr], i32, ptr, ptr, i32, [8 x %struct.connListener], i32, %struct.connListener, ptr, ptr, ptr, ptr, ptr, ptr, ptr, ptr, ptr, ptr, i32, ptr, i32, ptr, [3 x %struct.pause_event], [256 x i8], ptr, i64, i32, i32, i32, i32, i64, i32, i32, i32, i32, i32, i64, i64, i64, i64, i64, i64, i64, i64, i64, double, i64, i64, i64, i64, i64, i64, i64, i64, i64, i64, i64, i64, i64, i64, i64, i64, i64, i64, i64, i64, double, i64, i64, i64, i64, i64, ptr, i64, i64, i64, %struct.malloc_stats, i64, i64, i64, i64, i64, i64, i64, i64, i64, i64, i64, i64, double, [4 x i64], i64, i64, i64, i64, i64, i64, i64, i64, i64, i64, [7 x %struct.anon], i64, i64, i64, i64, i64, i64, [4 x %struct.durationStats], i32, i32, i32, i32, i32, i32, i32, i32, i32, i32, i64, i32, i32, i32, i32, i64, i64, i32, i32, i32, i32, i32, ptr, [3 x %struct.clientBufferLimitsConfig], i32, i32, ptr, i32, i32, i32, i32, ptr, ptr, i32, i32, i64, i64, i64, i64, i64, i32, i32, ptr, i32, i32, i64, i64, i64, i64, i64, i32, i32, i64, i32, i32, i32, i32, i32, i32, i32, i32, ptr, i32, i64, i64, i64, i64, ptr, i32, ptr, i32, i32, i32, i64, i64, i64, i64, i32, i32, i32, i32, i32, i32, ptr, i32, i32, ptr, i32, i32, i32, [2 x i32], i32, %struct.redisOpArray, i32, ptr, i32, ptr, i32, i32, i32, i32, i32, i32, i32, [41 x i8], [41 x i8], i64, i64, i64, i64, i32, i32, ptr, i64, i64, i64, i32, i32, i32, i32, i32, i32, i32, i64, ptr, ptr, ptr, ptr, i32, i32, ptr, ptr, i32, i32, i64, i64, i64, ptr, i32, ptr, i64, i32, i32, i32, i64, i32, i32, i32, i32, ptr, i32, i32, [41 x i8], i64, i32, ptr, i32, i32, i64, i64, i32, i32, i32, i32, i32, i64, [3 x i32], i32, i32, i32, [9 x i32], ptr, ptr, i32, i64, ptr, ptr, i32, i32, i32, i32, i64, i64, i64, i64, i64, i64, i64, i64, i64, i64, i32, i32, i64, i64, i32, i64, i64, i64, i64, i64, ptr, ptr, i32, ptr, i32, i32, i32, i64, i64, ptr, ptr, i32, i32, i32, i32, i32, ptr, ptr, ptr, i32, i32, i32, i32, i32, i32, i32, i64, i32, i64, i32, i32, i32, i32, i32, i32, i32, i64, ptr, ptr, i64, ptr, i32, %struct.aclInfo, i32, i64, i32, i32, i32, %struct.redisTLSContextConfig, ptr, ptr, ptr, ptr, ptr, i64, i32, ptr, i32, i32, i32, i64, i32, ptr }
%struct.connListener = type { [16 x i32], i32, ptr, i32, i32, ptr, ptr }
%struct.pause_event = type { i32, i64 }
%struct.malloc_stats = type { i64, i64, i64, i64, i64 }
%struct.anon = type { i64, i64, [16 x i64], i32 }
%struct.durationStats = type { i64, i64, i64 }
%struct.clientBufferLimitsConfig = type { i64, i64, i64 }
%struct.redisOpArray = type { ptr, i32, i32 }
%struct.aclInfo = type { i64, i64, i64, i64 }
%struct.redisTLSContextConfig = type { ptr, ptr, ptr, ptr, ptr, ptr, ptr, ptr, ptr, ptr, ptr, ptr, i32, i32, i32, i32 }

@server = external global %struct.redisServer, align 8
@.str.249 = private unnamed_addr constant [19 x i8] c"(%016lx) -> %016lx\00", align 1

; Function Attrs: nounwind uwtable
define dso_local void @logStackContent(ptr noundef %sp) #0 {
entry:
  %sp.addr = alloca ptr, align 8
  %i = alloca i32, align 4
  %addr = alloca i64, align 8
  %val = alloca i64, align 8
  store ptr %sp, ptr %sp.addr, align 8
  store i32 15, ptr %i, align 4
  br label %for.cond

for.cond:                                         ; preds = %for.inc, %entry
  %0 = load i32, ptr %i, align 4
  %cmp = icmp sge i32 %0, 0
  br i1 %cmp, label %for.body, label %for.end

for.body:                                         ; preds = %for.cond
  %1 = load ptr, ptr %sp.addr, align 8
  %2 = ptrtoint ptr %1 to i64
  %3 = load i32, ptr %i, align 4
  %conv = sext i32 %3 to i64
  %add = add i64 %2, %conv
  store i64 %add, ptr %addr, align 8
  %4 = load ptr, ptr %sp.addr, align 8
  %5 = load i32, ptr %i, align 4
  %idxprom = sext i32 %5 to i64
  %arrayidx = getelementptr inbounds ptr, ptr %4, i64 %idxprom
  %6 = load ptr, ptr %arrayidx, align 8
  %7 = ptrtoint ptr %6 to i64
  store i64 %7, ptr %val, align 8
  br label %do.body

do.body:                                          ; preds = %for.body
  %8 = load i32, ptr getelementptr inbounds (%struct.redisServer, ptr @server, i32 0, i32 156), align 8
  %cmp1 = icmp slt i32 3, %8
  br i1 %cmp1, label %if.then, label %if.end

if.then:                                          ; preds = %do.body
  br label %do.end

if.end:                                           ; preds = %do.body
  %9 = load i64, ptr %addr, align 8
  %10 = load i64, ptr %val, align 8
  call void (i32, ptr, ...) @_serverLog(i32 noundef 3, ptr noundef @.str.249, i64 noundef %9, i64 noundef %10)
  br label %do.end

do.end:                                           ; preds = %if.end, %if.then
  br label %for.inc

for.inc:                                          ; preds = %do.end
  %11 = load i32, ptr %i, align 4
  %dec = add nsw i32 %11, -1
  store i32 %dec, ptr %i, align 4
  br label %for.cond, !llvm.loop !28

for.end:                                          ; preds = %for.cond
  ret void
}