; Function Attrs: nounwind uwtable
define dso_local void @logStackContent(ptr noundef %sp) local_unnamed_addr #0 {
entry:
  %0 = ptrtoint ptr %sp to i64
  %1 = load i32, ptr getelementptr inbounds (%struct.redisServer, ptr @server, i64 0, i32 156), align 8
  %2 = icmp sgt i32 %1, 3
  br i1 %2, label %for.end, label %for.body

for.body:                                         ; preds = %entry, %for.inc
  %3 = phi i32 [ %6, %for.inc ], [ %1, %entry ]
  %indvars.iv = phi i64 [ %indvars.iv.next, %for.inc ], [ 15, %entry ]
  %cmp1 = icmp sgt i32 %3, 3
  br i1 %cmp1, label %for.inc, label %if.end

if.end:                                           ; preds = %for.body
  %arrayidx = getelementptr inbounds ptr, ptr %sp, i64 %indvars.iv
  %4 = load ptr, ptr %arrayidx, align 8
  %5 = ptrtoint ptr %4 to i64
  %add = add i64 %indvars.iv, %0
  tail call void (i32, ptr, ...) @_serverLog(i32 noundef 3, ptr noundef nonnull @.str.249, i64 noundef %add, i64 noundef %5) #22
  %.pre = load i32, ptr getelementptr inbounds (%struct.redisServer, ptr @server, i64 0, i32 156), align 8
  br label %for.inc

for.inc:                                          ; preds = %if.end, %for.body
  %6 = phi i32 [ %.pre, %if.end ], [ %3, %for.body ]
  %indvars.iv.next = add nsw i64 %indvars.iv, -1
  %cmp.not = icmp eq i64 %indvars.iv, 0
  br i1 %cmp.not, label %for.end, label %for.body, !llvm.loop !33

for.end:                                          ; preds = %for.inc, %entry
  ret void
}